(lp0
F3.9000000000000004
aF6.599999999999998
aF1.0999999999999999
aF5.700000000000001
aF1.0999999999999999
aF7.200000000000001
aF1.0999999999999999
aF6.299999999999999
aF1.4
aF-0.1200000000000001
aF1.0
aF2.3000000000000007
aF0.4
aF0.8999999999999995
aF0.5
aF4.7
aF0.5000000000000001
aF1.7000000000000002
aF0.4
aF-16.0
aF35.370000000000005
aF79589.0
aF-86831.0
aF2522.0
aF5000.0
aF0.0
aF-4.0
aF-332.0
aF-6.0
aF-352.0
aF3.9000000000000004
aF6.599999999999998
aF1.0999999999999999
aF5.700000000000001
aF1.0999999999999999
aF7.200000000000001
aF1.0999999999999999
aF6.299999999999999
aF1.4
aF-0.1200000000000001
aF6.0
aF3.200000000000001
aF0.4
aF5.9
aF0.6
aF1.7000000000000002
aF0.5000000000000001
aF3.3
aF0.30000000000000004
aF-16.0
aF35.370000000000005
aF79589.0
aF-86831.0
aF2522.0
aF5000.0
aF0.0
aF-4.0
aF-332.0
aF-6.0
aF-352.0
aF7.800000000000001
aF11.8
aF1.9999999999999998
aF15.700000000000001
aF1.9999999999999998
aF12.200000000000001
aF1.9999999999999998
aF14.4
aF2.1999999999999997
aF-0.16999999999999993
aF0.0
aF0.5
aF0.0
aF0.2999999999999998
aF0.29999999999999993
aF0.7999999999999998
aF0.09999999999999998
aF0.7000000000000002
aF0.0
aF-18.0
aF46.42999999999999
aF389759.0
aF-375962.0
aF10206.0
aF-51914.0
aF0.0
aF379.0
aF56368.0
aF378.0
aF56304.0
aF7.800000000000001
aF11.8
aF1.9999999999999998
aF15.700000000000001
aF1.9999999999999998
aF12.200000000000001
aF1.9999999999999998
aF14.4
aF2.1999999999999997
aF-0.16999999999999993
aF0.0
aF1.0999999999999996
aF0.09999999999999998
aF0.2999999999999998
aF0.29999999999999993
aF4.000000000000001
aF0.09999999999999998
aF3.7
aF0.0
aF-18.0
aF46.42999999999999
aF389759.0
aF-375962.0
aF10206.0
aF-51914.0
aF0.0
aF379.0
aF56368.0
aF378.0
aF56304.0
aF7.800000000000001
aF11.8
aF1.9999999999999998
aF15.700000000000001
aF1.9999999999999998
aF12.200000000000001
aF1.9999999999999998
aF14.4
aF2.1999999999999997
aF-0.16999999999999993
aF4.0
aF1.0999999999999996
aF0.0
aF3.9000000000000004
aF0.19999999999999996
aF4.000000000000001
aF0.09999999999999998
aF0.7000000000000002
aF0.09999999999999998
aF-18.0
aF46.42999999999999
aF389759.0
aF-375962.0
aF10206.0
aF-51914.0
aF0.0
aF379.0
aF56368.0
aF378.0
aF56304.0
aF7.800000000000001
aF11.8
aF1.9999999999999998
aF15.700000000000001
aF1.9999999999999998
aF12.200000000000001
aF1.9999999999999998
aF14.4
aF2.1999999999999997
aF0.020000000000000018
aF2.0
aF-2.5
aF0.0
aF-0.3000000000000007
aF0.19999999999999996
aF-0.2999999999999998
aF0.0
aF0.40000000000000036
aF-0.19999999999999996
aF-18.0
aF106.76999999999998
aF459468.0
aF-473516.0
aF14435.0
aF-40684.0
aF0.0
aF395.0
aF65304.0
aF409.0
aF57844.0
aFinf
aFinf
aFinf
aFinf
aFinf
aFinf
aFinf
aFinf
aF-0.019041861407458782
aF0.0020506763830780983
aF-0.014648111537098885
aF-0.03515508025884628
aF-0.005859245080500841
aF-0.08349303156137466
aF-0.01025354815647006
aF-0.029295865446329117
aF-0.004394401330500841
aF-0.04394322633743286
aF-0.013183105736970901
aF-0.02929622307419777
aF1.0458555817604065
aF5564.48779296875
aF-5664.173828125
aF174.50157928466797
aF-669.18798828125
aF0.0
aF5.844591379165649
aF961.4406127929688
aF6.078956365585327
aF852.4610290527344
a.